; Function Attrs: mustprogress nofree norecurse nosync nounwind willreturn memory(argmem: read) uwtable
define noundef nonnull ptr @wolfSSL_get_version(ptr noundef readonly captures(address_is_null) %0) local_unnamed_addr #9 {
  %2 = icmp eq ptr %0, null
  br i1 %2, label %wolfSSL_internal_get_version.exit, label %3

3:                                                ; preds = %1
  %4 = getelementptr inbounds nuw i8, ptr %0, i64 710
  %5 = load i8, ptr %4, align 1, !tbaa !247
  %6 = icmp eq i8 %5, 3
  br i1 %6, label %7, label %wolfSSL_internal_get_version.exit

7:                                                ; preds = %3
  %8 = getelementptr inbounds nuw i8, ptr %0, i64 711
  %9 = load i8, ptr %8, align 1, !tbaa !248
  %10 = icmp ult i8 %9, 5
  br i1 %10, label %switch.lookup, label %wolfSSL_internal_get_version.exit

switch.lookup:                                    ; preds = %7
  %11 = zext nneg i8 %9 to i64
  %switch.gep = getelementptr inbounds nuw [5 x ptr], ptr @switch.table.wolfSSL_CIPHER_get_version, i64 0, i64 %11
  %switch.load = load ptr, ptr %switch.gep, align 8
  br label %wolfSSL_internal_get_version.exit

wolfSSL_internal_get_version.exit:                ; preds = %7, %switch.lookup, %3, %1
  %.0 = phi ptr [ @.str.2, %1 ], [ @.str.2, %3 ], [ %switch.load, %switch.lookup ], [ @.str.2, %7 ]
  ret ptr %.0
}